(dp0
Vhttps://s3-ap-southeast-2.amazonaws.com/transport.wa/WAVERIDER_DEPLOYMENTS/WaveRider_Yearly_Processed/NIN27_YEARLY_PROCESSED.zip
p1
S'b69caecb3da9bb06af2c4910beae872e'
p2
sVhttps://s3-ap-southeast-2.amazonaws.com/transport.wa/WAVERIDER_DEPLOYMENTS/WaveRider_Yearly_Processed/DAW24_YEARLY_PROCESSED.zip
p3
S'd96785ebda5448c9a3ebef94d05c6d2f'
p4
sVhttps://s3-ap-southeast-2.amazonaws.com/transport.wa/WAVERIDER_DEPLOYMENTS/WaveRider_Yearly_Processed/BRE35_YEARLY_PROCESSED.zip
p5
S'1a2cf22cd52f4d59203b1f152e492876'
p6
sVhttps://s3-ap-southeast-2.amazonaws.com/transport.wa/WAVERIDER_DEPLOYMENTS/WaveRider_Yearly_Processed/LDG45_YEARLY_PROCESSED.zip
p7
S'f42697f3eaf1a012f61ff898b65228ee'
p8
sVhttps://s3-ap-southeast-2.amazonaws.com/transport.wa/WAVERIDER_DEPLOYMENTS/WaveRider_Yearly_Processed/OAM53_YEARLY_PROCESSED.zip
p9
S'8f974df34e7368b0821ab08765b5c1ce'
p10
sVhttps://s3-ap-southeast-2.amazonaws.com/transport.wa/WAVERIDER_DEPLOYMENTS/WaveRider_Yearly_Processed/JUR40_YEARLY_PROCESSED.zip
p11
S'bc664afc24b5b0f4413730ece3e85c21'
p12
sVhttps://s3-ap-southeast-2.amazonaws.com/transport.wa/WAVERIDER_DEPLOYMENTS/WaveRider_Yearly_Processed/DAW22_YEARLY_PROCESSED.zip
p13
S'218268d43fe20fa882f4b15e3adf997c'
p14
sVhttps://s3-ap-southeast-2.amazonaws.com/transport.wa/WAVERIDER_DEPLOYMENTS/WaveRider_Yearly_Processed/BRE34_YEARLY_PROCESSED.zip
p15
S'a0b09aa3905922385b57f388fc9fbdd9'
p16
sVhttps://s3-ap-southeast-2.amazonaws.com/transport.wa/WAVERIDER_DEPLOYMENTS/WaveRider_Yearly_Processed/GER20_YEARLY_PROCESSED.zip
p17
S'd1231aa0872da99cdf3fbbfeee11515a'
p18
sVhttps://s3-ap-southeast-2.amazonaws.com/transport.wa/WAVERIDER_DEPLOYMENTS/WaveRider_Yearly_Processed/EXM52_YEARLY_PROCESSED.zip
p19
S'968805ae741d70c169c17d1fa8a4730c'
p20
sVhttps://s3-ap-southeast-2.amazonaws.com/transport.wa/WAVERIDER_DEPLOYMENTS/WaveRider_Yearly_Processed/DAW23_YEARLY_PROCESSED.zip
p21
S'642ded69b3efe7aff2d413e0099d1685'
p22
sVhttps://s3-ap-southeast-2.amazonaws.com/transport.wa/WAVERIDER_DEPLOYMENTS/WaveRider_Yearly_Processed/GUI29_YEARLY_PROCESSED.zip
p23
S'b44771ec13314ad648612675ad3f7465'
p24
sVhttps://s3-ap-southeast-2.amazonaws.com/transport.wa/WAVERIDER_DEPLOYMENTS/WaveRider_Yearly_Processed/OAK42_YEARLY_PROCESSED.zip
p25
S'f8c1fb8a1cdf86d8481cf71b1bf2c427'
p26
sVhttps://s3-ap-southeast-2.amazonaws.com/transport.wa/WAVERIDER_DEPLOYMENTS/WaveRider_Yearly_Processed/ROT33_YEARLY_PROCESSED.zip
p27
S'11ede6eeafda9654620004687faba2a1'
p28
sVhttps://s3-ap-southeast-2.amazonaws.com/transport.wa/WAVERIDER_DEPLOYMENTS/WaveRider_Yearly_Processed/AUG32_YEARLY_PROCESSED.zip
p29
S'8c3f36304f219c91dc8997e285d089e1'
p30
sVhttps://s3-ap-southeast-2.amazonaws.com/transport.wa/WAVERIDER_DEPLOYMENTS/WaveRider_Yearly_Processed/ESP49_YEARLY_PROCESSED.zip
p31
S'59fb066c91ea042c614d93e98c5e1cdf'
p32
sVhttps://s3-ap-southeast-2.amazonaws.com/transport.wa/WAVERIDER_DEPLOYMENTS/WaveRider_Yearly_Processed/GUI28_YEARLY_PROCESSED.zip
p33
S'3dd5a43ceea1614dab0582ae8ca7510a'
p34
s.